; Function Attrs: mustprogress nounwind uwtable
define dso_local void @_ZNK5clang23TestModuleFileExtension3strB5cxx11Ev(ptr dead_on_unwind noalias nonnull writable sret(%"class.std::__cxx11::basic_string") align 8 %0, ptr noundef nonnull align 8 dereferenceable(88) %1) local_unnamed_addr #0 align 2 {
  %3 = alloca %"class.llvm::raw_string_ostream", align 8
  tail call void @_ZNSt7__cxx1112basic_stringIcSt11char_traitsIcESaIcEEC1Ev(ptr noundef nonnull align 8 dereferenceable(32) %0) #15
  %4 = getelementptr inbounds nuw i8, ptr %3, i64 8
  store i32 0, ptr %4, align 8
  %5 = getelementptr inbounds nuw i8, ptr %3, i64 40
  store i8 0, ptr %5, align 8
  %6 = getelementptr inbounds nuw i8, ptr %3, i64 44
  store i32 1, ptr %6, align 4
  %7 = getelementptr inbounds nuw i8, ptr %3, i64 16
  call void @llvm.memset.p0.i64(ptr noundef nonnull align 8 dereferenceable(24) %7, i8 0, i64 24, i1 false)
  store ptr getelementptr inbounds nuw inrange(-16, 104) (i8, ptr @_ZTVN4llvm18raw_string_ostreamE, i64 16), ptr %3, align 8
  %8 = getelementptr inbounds nuw i8, ptr %3, i64 48
  store ptr %0, ptr %8, align 8
  call void @_ZN4llvm11raw_ostream16SetBufferAndModeEPcmNS0_10BufferKindE(ptr noundef nonnull align 8 dereferenceable(56) %3, ptr noundef null, i64 noundef 0, i32 noundef 0) #15
  %9 = getelementptr inbounds nuw i8, ptr %1, i64 8
  %10 = call noundef ptr @_ZNKSt7__cxx1112basic_stringIcSt11char_traitsIcESaIcEE4dataEv(ptr noundef nonnull align 8 dereferenceable(32) %9) #15
  %11 = call noundef i64 @_ZNKSt7__cxx1112basic_stringIcSt11char_traitsIcESaIcEE6lengthEv(ptr noundef nonnull align 8 dereferenceable(32) %9) #15
  %12 = call noundef nonnull align 8 dereferenceable(48) ptr @_ZN4llvm11raw_ostream5writeEPKcm(ptr noundef nonnull align 8 dereferenceable(48) %3, ptr noundef %10, i64 noundef %11) #15
  %13 = getelementptr inbounds nuw i8, ptr %12, i64 24
  %14 = load ptr, ptr %13, align 8
  %15 = getelementptr inbounds nuw i8, ptr %12, i64 32
  %16 = load ptr, ptr %15, align 8
  %17 = icmp eq ptr %14, %16
  br i1 %17, label %18, label %20

18:                                               ; preds = %2
  %19 = call noundef nonnull align 8 dereferenceable(48) ptr @_ZN4llvm11raw_ostream5writeEPKcm(ptr noundef nonnull align 8 dereferenceable(48) %12, ptr noundef nonnull @.str.5, i64 noundef 1) #15
  br label %_ZN4llvm11raw_ostreamlsEPKc.exit

20:                                               ; preds = %2
  store i8 58, ptr %16, align 1
  %21 = load ptr, ptr %15, align 8
  %22 = getelementptr inbounds nuw i8, ptr %21, i64 1
  store ptr %22, ptr %15, align 8
  br label %_ZN4llvm11raw_ostreamlsEPKc.exit

_ZN4llvm11raw_ostreamlsEPKc.exit:                 ; preds = %18, %20
  %.0.i.i = phi ptr [ %19, %18 ], [ %12, %20 ]
  %23 = getelementptr inbounds nuw i8, ptr %1, i64 40
  %24 = load i32, ptr %23, align 8
  %25 = zext i32 %24 to i64
  %26 = call noundef nonnull align 8 dereferenceable(48) ptr @_ZN4llvm11raw_ostreamlsEm(ptr noundef nonnull align 8 dereferenceable(48) %.0.i.i, i64 noundef %25) #15
  %27 = getelementptr inbounds nuw i8, ptr %26, i64 24
  %28 = load ptr, ptr %27, align 8
  %29 = getelementptr inbounds nuw i8, ptr %26, i64 32
  %30 = load ptr, ptr %29, align 8
  %31 = icmp eq ptr %28, %30
  br i1 %31, label %32, label %34

32:                                               ; preds = %_ZN4llvm11raw_ostreamlsEPKc.exit
  %33 = call noundef nonnull align 8 dereferenceable(48) ptr @_ZN4llvm11raw_ostream5writeEPKcm(ptr noundef nonnull align 8 dereferenceable(48) %26, ptr noundef nonnull @.str.5, i64 noundef 1) #15
  br label %_ZN4llvm11raw_ostreamlsEPKc.exit4

34:                                               ; preds = %_ZN4llvm11raw_ostreamlsEPKc.exit
  store i8 58, ptr %30, align 1
  %35 = load ptr, ptr %29, align 8
  %36 = getelementptr inbounds nuw i8, ptr %35, i64 1
  store ptr %36, ptr %29, align 8
  br label %_ZN4llvm11raw_ostreamlsEPKc.exit4

_ZN4llvm11raw_ostreamlsEPKc.exit4:                ; preds = %32, %34
  %.0.i.i3 = phi ptr [ %33, %32 ], [ %26, %34 ]
  %37 = getelementptr inbounds nuw i8, ptr %1, i64 44
  %38 = load i32, ptr %37, align 4
  %39 = zext i32 %38 to i64
  %40 = call noundef nonnull align 8 dereferenceable(48) ptr @_ZN4llvm11raw_ostreamlsEm(ptr noundef nonnull align 8 dereferenceable(48) %.0.i.i3, i64 noundef %39) #15
  %41 = getelementptr inbounds nuw i8, ptr %40, i64 24
  %42 = load ptr, ptr %41, align 8
  %43 = getelementptr inbounds nuw i8, ptr %40, i64 32
  %44 = load ptr, ptr %43, align 8
  %45 = icmp eq ptr %42, %44
  br i1 %45, label %46, label %48

46:                                               ; preds = %_ZN4llvm11raw_ostreamlsEPKc.exit4
  %47 = call noundef nonnull align 8 dereferenceable(48) ptr @_ZN4llvm11raw_ostream5writeEPKcm(ptr noundef nonnull align 8 dereferenceable(48) %40, ptr noundef nonnull @.str.5, i64 noundef 1) #15
  br label %_ZN4llvm11raw_ostreamlsEPKc.exit7

48:                                               ; preds = %_ZN4llvm11raw_ostreamlsEPKc.exit4
  store i8 58, ptr %44, align 1
  %49 = load ptr, ptr %43, align 8
  %50 = getelementptr inbounds nuw i8, ptr %49, i64 1
  store ptr %50, ptr %43, align 8
  br label %_ZN4llvm11raw_ostreamlsEPKc.exit7

_ZN4llvm11raw_ostreamlsEPKc.exit7:                ; preds = %46, %48
  %.0.i.i6 = phi ptr [ %47, %46 ], [ %40, %48 ]
  %51 = getelementptr inbounds nuw i8, ptr %1, i64 48
  %52 = load i8, ptr %51, align 8
  %53 = and i8 %52, 1
  %54 = zext nneg i8 %53 to i64
  %55 = call noundef nonnull align 8 dereferenceable(48) ptr @_ZN4llvm11raw_ostreamlsEl(ptr noundef nonnull align 8 dereferenceable(48) %.0.i.i6, i64 noundef %54) #15
  %56 = getelementptr inbounds nuw i8, ptr %55, i64 24
  %57 = load ptr, ptr %56, align 8
  %58 = getelementptr inbounds nuw i8, ptr %55, i64 32
  %59 = load ptr, ptr %58, align 8
  %60 = icmp eq ptr %57, %59
  br i1 %60, label %61, label %63

61:                                               ; preds = %_ZN4llvm11raw_ostreamlsEPKc.exit7
  %62 = call noundef nonnull align 8 dereferenceable(48) ptr @_ZN4llvm11raw_ostream5writeEPKcm(ptr noundef nonnull align 8 dereferenceable(48) %55, ptr noundef nonnull @.str.5, i64 noundef 1) #15
  br label %_ZN4llvm11raw_ostreamlsEPKc.exit10

63:                                               ; preds = %_ZN4llvm11raw_ostreamlsEPKc.exit7
  store i8 58, ptr %59, align 1
  %64 = load ptr, ptr %58, align 8
  %65 = getelementptr inbounds nuw i8, ptr %64, i64 1
  store ptr %65, ptr %58, align 8
  br label %_ZN4llvm11raw_ostreamlsEPKc.exit10

_ZN4llvm11raw_ostreamlsEPKc.exit10:               ; preds = %61, %63
  %.0.i.i9 = phi ptr [ %62, %61 ], [ %55, %63 ]
  %66 = getelementptr inbounds nuw i8, ptr %1, i64 56
  %67 = call noundef ptr @_ZNKSt7__cxx1112basic_stringIcSt11char_traitsIcESaIcEE4dataEv(ptr noundef nonnull align 8 dereferenceable(32) %66) #15
  %68 = call noundef i64 @_ZNKSt7__cxx1112basic_stringIcSt11char_traitsIcESaIcEE6lengthEv(ptr noundef nonnull align 8 dereferenceable(32) %66) #15
  %69 = call noundef nonnull align 8 dereferenceable(48) ptr @_ZN4llvm11raw_ostream5writeEPKcm(ptr noundef nonnull align 8 dereferenceable(48) %.0.i.i9, ptr noundef %67, i64 noundef %68) #15
  call void @_ZN4llvm11raw_ostreamD2Ev(ptr noundef nonnull align 8 dereferenceable(56) %3) #15
  ret void
}